target datalayout = "e-m:e-p270:32:32-p271:32:32-p272:64:64-i64:64-i128:128-f80:128-n8:16:32:64-S128"
target triple = "x86_64-pc-linux-gnu"

%"class.cv::wechat_qrcode::Align" = type <{ %"class.cv::Mat", %"class.cv::Mat", i32, i32, i8, [7 x i8] }>
%"class.cv::Mat" = type { i32, i32, i32, i32, ptr, ptr, ptr, ptr, ptr, ptr, %"struct.cv::MatSize", %"struct.cv::MatStep" }
%"struct.cv::MatSize" = type { ptr }
%"struct.cv::MatStep" = type { ptr, [2 x i64] }
%"class.cv::MatExpr" = type { ptr, i32, %"class.cv::Mat", %"class.cv::Mat", %"class.cv::Mat", double, double, %"class.cv::Scalar_" }
%"class.cv::Scalar_" = type { %"class.cv::Vec" }
%"class.cv::Vec" = type { %"class.cv::Matx" }
%"class.cv::Matx" = type { [4 x double] }
%"class.cv::Rect_" = type { i32, i32, i32, i32 }

; Function Attrs: mustprogress uwtable
define linkonce_odr hidden noundef nonnull align 8 dereferenceable(96) ptr @_ZN2cv3MataSERKNS_7MatExprE(ptr noundef nonnull align 8 dereferenceable(96) %0, ptr noundef nonnull align 8 dereferenceable(352) %1) #2 comdat align 2 {
  %3 = alloca ptr, align 8
  %4 = alloca ptr, align 8
  store ptr %0, ptr %3, align 8
  store ptr %1, ptr %4, align 8
  %5 = load ptr, ptr %3, align 8
  %6 = load ptr, ptr %4, align 8
  %7 = getelementptr inbounds %"class.cv::MatExpr", ptr %6, i32 0, i32 0
  %8 = load ptr, ptr %7, align 8
  %9 = load ptr, ptr %4, align 8
  %10 = load ptr, ptr %8, align 8
  %11 = getelementptr inbounds ptr, ptr %10, i64 3
  %12 = load ptr, ptr %11, align 8
  call void %12(ptr noundef nonnull align 8 dereferenceable(8) %8, ptr noundef nonnull align 8 dereferenceable(352) %9, ptr noundef nonnull align 8 dereferenceable(96) %5, i32 noundef -1)
  ret ptr %5
}

; Function Attrs: mustprogress uwtable
define linkonce_odr hidden void @_ZNK2cv3MatclERKNS_5Rect_IiEE(ptr dead_on_unwind noalias writable sret(%"class.cv::Mat") align 8 %0, ptr noundef nonnull align 8 dereferenceable(96) %1, ptr noundef nonnull align 4 dereferenceable(16) %2) #2 comdat align 2 {
  %4 = alloca ptr, align 8
  %5 = alloca ptr, align 8
  %6 = alloca ptr, align 8
  store ptr %0, ptr %4, align 8
  store ptr %1, ptr %5, align 8
  store ptr %2, ptr %6, align 8
  %7 = load ptr, ptr %5, align 8
  %8 = load ptr, ptr %6, align 8
  call void @_ZN2cv3MatC1ERKS0_RKNS_5Rect_IiEE(ptr noundef nonnull align 8 dereferenceable(96) %0, ptr noundef nonnull align 8 dereferenceable(96) %7, ptr noundef nonnull align 4 dereferenceable(16) %8)
  ret void
}

; Function Attrs: mustprogress nounwind uwtable
define linkonce_odr hidden void @_ZN2cv5Rect_IiEC2Eiiii(ptr noundef nonnull align 4 dereferenceable(16) %0, i32 noundef %1, i32 noundef %2, i32 noundef %3, i32 noundef %4) unnamed_addr #0 comdat align 2 {
  %6 = alloca ptr, align 8
  %7 = alloca i32, align 4
  %8 = alloca i32, align 4
  %9 = alloca i32, align 4
  %10 = alloca i32, align 4
  store ptr %0, ptr %6, align 8
  store i32 %1, ptr %7, align 4
  store i32 %2, ptr %8, align 4
  store i32 %3, ptr %9, align 4
  store i32 %4, ptr %10, align 4
  %11 = load ptr, ptr %6, align 8
  %12 = getelementptr inbounds %"class.cv::Rect_", ptr %11, i32 0, i32 0
  %13 = load i32, ptr %7, align 4
  store i32 %13, ptr %12, align 4
  %14 = getelementptr inbounds %"class.cv::Rect_", ptr %11, i32 0, i32 1
  %15 = load i32, ptr %8, align 4
  store i32 %15, ptr %14, align 4
  %16 = getelementptr inbounds %"class.cv::Rect_", ptr %11, i32 0, i32 2
  %17 = load i32, ptr %9, align 4
  store i32 %17, ptr %16, align 4
  %18 = getelementptr inbounds %"class.cv::Rect_", ptr %11, i32 0, i32 3
  %19 = load i32, ptr %10, align 4
  store i32 %19, ptr %18, align 4
  ret void
}

; Function Attrs: mustprogress nounwind uwtable
define linkonce_odr noundef nonnull align 4 dereferenceable(4) ptr @_ZSt3minIiERKT_S2_S2_(ptr noundef nonnull align 4 dereferenceable(4) %0, ptr noundef nonnull align 4 dereferenceable(4) %1) #0 comdat {
  %3 = alloca ptr, align 8
  %4 = alloca ptr, align 8
  %5 = alloca ptr, align 8
  store ptr %0, ptr %4, align 8
  store ptr %1, ptr %5, align 8
  %6 = load ptr, ptr %5, align 8
  %7 = load i32, ptr %6, align 4
  %8 = load ptr, ptr %4, align 8
  %9 = load i32, ptr %8, align 4
  %10 = icmp slt i32 %7, %9
  br i1 %10, label %11, label %13

11:                                               ; preds = %2
  %12 = load ptr, ptr %5, align 8
  store ptr %12, ptr %3, align 8
  br label %15

13:                                               ; preds = %2
  %14 = load ptr, ptr %4, align 8
  store ptr %14, ptr %3, align 8
  br label %15

15:                                               ; preds = %13, %11
  %16 = load ptr, ptr %3, align 8
  ret ptr %16
}

; Function Attrs: mustprogress nounwind uwtable
define linkonce_odr noundef nonnull align 4 dereferenceable(4) ptr @_ZSt3maxIiERKT_S2_S2_(ptr noundef nonnull align 4 dereferenceable(4) %0, ptr noundef nonnull align 4 dereferenceable(4) %1) #0 comdat {
  %3 = alloca ptr, align 8
  %4 = alloca ptr, align 8
  %5 = alloca ptr, align 8
  store ptr %0, ptr %4, align 8
  store ptr %1, ptr %5, align 8
  %6 = load ptr, ptr %4, align 8
  %7 = load i32, ptr %6, align 4
  %8 = load ptr, ptr %5, align 8
  %9 = load i32, ptr %8, align 4
  %10 = icmp slt i32 %7, %9
  br i1 %10, label %11, label %13

11:                                               ; preds = %2
  %12 = load ptr, ptr %5, align 8
  store ptr %12, ptr %3, align 8
  br label %15

13:                                               ; preds = %2
  %14 = load ptr, ptr %4, align 8
  store ptr %14, ptr %3, align 8
  br label %15

15:                                               ; preds = %13, %11
  %16 = load ptr, ptr %3, align 8
  ret ptr %16
}

; Function Attrs: mustprogress nounwind uwtable
define linkonce_odr noundef nonnull align 4 dereferenceable(4) ptr @_ZSt3maxIfERKT_S2_S2_(ptr noundef nonnull align 4 dereferenceable(4) %0, ptr noundef nonnull align 4 dereferenceable(4) %1) #0 comdat {
  %3 = alloca ptr, align 8
  %4 = alloca ptr, align 8
  %5 = alloca ptr, align 8
  store ptr %0, ptr %4, align 8
  store ptr %1, ptr %5, align 8
  %6 = load ptr, ptr %4, align 8
  %7 = load float, ptr %6, align 4
  %8 = load ptr, ptr %5, align 8
  %9 = load float, ptr %8, align 4
  %10 = fcmp olt float %7, %9
  br i1 %10, label %11, label %13

11:                                               ; preds = %2
  %12 = load ptr, ptr %5, align 8
  store ptr %12, ptr %3, align 8
  br label %15

13:                                               ; preds = %2
  %14 = load ptr, ptr %4, align 8
  store ptr %14, ptr %3, align 8
  br label %15

15:                                               ; preds = %13, %11
  %16 = load ptr, ptr %3, align 8
  ret ptr %16
}

; Function Attrs: mustprogress nounwind uwtable
define linkonce_odr hidden noundef nonnull align 4 dereferenceable(4) ptr @_ZNK2cv3Mat2atIfEERKT_ii(ptr noundef nonnull align 8 dereferenceable(96) %0, i32 noundef %1, i32 noundef %2) #0 comdat align 2 {
  %4 = alloca ptr, align 8
  %5 = alloca i32, align 4
  %6 = alloca i32, align 4
  store ptr %0, ptr %4, align 8
  store i32 %1, ptr %5, align 4
  store i32 %2, ptr %6, align 4
  %7 = load ptr, ptr %4, align 8
  %8 = getelementptr inbounds %"class.cv::Mat", ptr %7, i32 0, i32 4
  %9 = load ptr, ptr %8, align 8
  %10 = getelementptr inbounds %"class.cv::Mat", ptr %7, i32 0, i32 11
  %11 = getelementptr inbounds %"struct.cv::MatStep", ptr %10, i32 0, i32 0
  %12 = load ptr, ptr %11, align 8
  %13 = getelementptr inbounds i64, ptr %12, i64 0
  %14 = load i64, ptr %13, align 8
  %15 = load i32, ptr %5, align 4
  %16 = sext i32 %15 to i64
  %17 = mul i64 %14, %16
  %18 = getelementptr inbounds i8, ptr %9, i64 %17
  %19 = load i32, ptr %6, align 4
  %20 = sext i32 %19 to i64
  %21 = getelementptr inbounds float, ptr %18, i64 %20
  ret ptr %21
}

; Function Attrs: mustprogress uwtable
define hidden void @_ZN2cv13wechat_qrcode5Align4cropERKNS_3MatES4_ffi(ptr dead_on_unwind noalias writable sret(%"class.cv::Mat") align 8 %0, ptr noundef nonnull align 8 dereferenceable(201) %1, ptr noundef nonnull align 8 dereferenceable(96) %2, ptr noundef nonnull align 8 dereferenceable(96) %3, float noundef %4, float noundef %5, i32 noundef %6) #2 align 2 personality ptr @__gxx_personality_v0 {
  %8 = alloca ptr, align 8
  %9 = alloca ptr, align 8
  %10 = alloca ptr, align 8
  %11 = alloca ptr, align 8
  %12 = alloca float, align 4
  %13 = alloca float, align 4
  %14 = alloca i32, align 4
  %15 = alloca i32, align 4
  %16 = alloca i32, align 4
  %17 = alloca i32, align 4
  %18 = alloca i32, align 4
  %19 = alloca i32, align 4
  %20 = alloca i32, align 4
  %21 = alloca i32, align 4
  %22 = alloca float, align 4
  %23 = alloca float, align 4
  %24 = alloca i32, align 4
  %25 = alloca float, align 4
  %26 = alloca float, align 4
  %27 = alloca i32, align 4
  %28 = alloca i32, align 4
  %29 = alloca i32, align 4
  %30 = alloca i32, align 4
  %31 = alloca i32, align 4
  %32 = alloca i32, align 4
  %33 = alloca i32, align 4
  %34 = alloca i32, align 4
  %35 = alloca i32, align 4
  %36 = alloca i32, align 4
  %37 = alloca %"class.cv::Rect_", align 4
  %38 = alloca i1, align 1
  %39 = alloca %"class.cv::Mat", align 8
  %40 = alloca ptr, align 8
  %41 = alloca i32, align 4
  %42 = alloca %"class.cv::MatExpr", align 8
  store ptr %0, ptr %8, align 8
  store ptr %1, ptr %9, align 8
  store ptr %2, ptr %10, align 8
  store ptr %3, ptr %11, align 8
  store float %4, ptr %12, align 4
  store float %5, ptr %13, align 4
  store i32 %6, ptr %14, align 4
  %43 = load ptr, ptr %9, align 8
  %44 = load ptr, ptr %11, align 8
  %45 = call noundef nonnull align 4 dereferenceable(4) ptr @_ZNK2cv3Mat2atIfEERKT_ii(ptr noundef nonnull align 8 dereferenceable(96) %44, i32 noundef 0, i32 noundef 0)
  %46 = load float, ptr %45, align 4
  %47 = fptosi float %46 to i32
  store i32 %47, ptr %15, align 4
  %48 = load ptr, ptr %11, align 8
  %49 = call noundef nonnull align 4 dereferenceable(4) ptr @_ZNK2cv3Mat2atIfEERKT_ii(ptr noundef nonnull align 8 dereferenceable(96) %48, i32 noundef 0, i32 noundef 1)
  %50 = load float, ptr %49, align 4
  %51 = fptosi float %50 to i32
  store i32 %51, ptr %16, align 4
  %52 = load ptr, ptr %11, align 8
  %53 = call noundef nonnull align 4 dereferenceable(4) ptr @_ZNK2cv3Mat2atIfEERKT_ii(ptr noundef nonnull align 8 dereferenceable(96) %52, i32 noundef 2, i32 noundef 0)
  %54 = load float, ptr %53, align 4
  %55 = fptosi float %54 to i32
  store i32 %55, ptr %17, align 4
  %56 = load ptr, ptr %11, align 8
  %57 = call noundef nonnull align 4 dereferenceable(4) ptr @_ZNK2cv3Mat2atIfEERKT_ii(ptr noundef nonnull align 8 dereferenceable(96) %56, i32 noundef 2, i32 noundef 1)
  %58 = load float, ptr %57, align 4
  %59 = fptosi float %58 to i32
  store i32 %59, ptr %18, align 4
  %60 = load i32, ptr %17, align 4
  %61 = load i32, ptr %15, align 4
  %62 = sub nsw i32 %60, %61
  %63 = add nsw i32 %62, 1
  store i32 %63, ptr %19, align 4
  %64 = load i32, ptr %18, align 4
  %65 = load i32, ptr %16, align 4
  %66 = sub nsw i32 %64, %65
  %67 = add nsw i32 %66, 1
  store i32 %67, ptr %20, align 4
  %68 = load float, ptr %12, align 4
  %69 = load i32, ptr %19, align 4
  %70 = sitofp i32 %69 to float
  %71 = fmul float %68, %70
  store float %71, ptr %22, align 4
  %72 = load i32, ptr %14, align 4
  %73 = sitofp i32 %72 to float
  store float %73, ptr %23, align 4
  %74 = call noundef nonnull align 4 dereferenceable(4) ptr @_ZSt3maxIfERKT_S2_S2_(ptr noundef nonnull align 4 dereferenceable(4) %22, ptr noundef nonnull align 4 dereferenceable(4) %23)
  %75 = load float, ptr %74, align 4
  %76 = fptosi float %75 to i32
  store i32 %76, ptr %21, align 4
  %77 = load float, ptr %13, align 4
  %78 = load i32, ptr %20, align 4
  %79 = sitofp i32 %78 to float
  %80 = fmul float %77, %79
  store float %80, ptr %25, align 4
  %81 = load i32, ptr %14, align 4
  %82 = sitofp i32 %81 to float
  store float %82, ptr %26, align 4
  %83 = call noundef nonnull align 4 dereferenceable(4) ptr @_ZSt3maxIfERKT_S2_S2_(ptr noundef nonnull align 4 dereferenceable(4) %25, ptr noundef nonnull align 4 dereferenceable(4) %26)
  %84 = load float, ptr %83, align 4
  %85 = fptosi float %84 to i32
  store i32 %85, ptr %24, align 4
  %86 = load i32, ptr %15, align 4
  %87 = load i32, ptr %21, align 4
  %88 = sub nsw i32 %86, %87
  store i32 %88, ptr %27, align 4
  store i32 0, ptr %28, align 4
  %89 = call noundef nonnull align 4 dereferenceable(4) ptr @_ZSt3maxIiERKT_S2_S2_(ptr noundef nonnull align 4 dereferenceable(4) %27, ptr noundef nonnull align 4 dereferenceable(4) %28)
  %90 = load i32, ptr %89, align 4
  %91 = getelementptr inbounds %"class.cv::wechat_qrcode::Align", ptr %43, i32 0, i32 2
  store i32 %90, ptr %91, align 8
  %92 = load i32, ptr %16, align 4
  %93 = load i32, ptr %24, align 4
  %94 = sub nsw i32 %92, %93
  store i32 %94, ptr %29, align 4
  store i32 0, ptr %30, align 4
  %95 = call noundef nonnull align 4 dereferenceable(4) ptr @_ZSt3maxIiERKT_S2_S2_(ptr noundef nonnull align 4 dereferenceable(4) %29, ptr noundef nonnull align 4 dereferenceable(4) %30)
  %96 = load i32, ptr %95, align 4
  %97 = getelementptr inbounds %"class.cv::wechat_qrcode::Align", ptr %43, i32 0, i32 3
  store i32 %96, ptr %97, align 4
  %98 = load i32, ptr %17, align 4
  %99 = load i32, ptr %21, align 4
  %100 = add nsw i32 %98, %99
  store i32 %100, ptr %32, align 4
  %101 = load ptr, ptr %10, align 8
  %102 = getelementptr inbounds %"class.cv::Mat", ptr %101, i32 0, i32 3
  %103 = load i32, ptr %102, align 4
  %104 = sub nsw i32 %103, 1
  store i32 %104, ptr %33, align 4
  %105 = call noundef nonnull align 4 dereferenceable(4) ptr @_ZSt3minIiERKT_S2_S2_(ptr noundef nonnull align 4 dereferenceable(4) %32, ptr noundef nonnull align 4 dereferenceable(4) %33)
  %106 = load i32, ptr %105, align 4
  store i32 %106, ptr %31, align 4
  %107 = load i32, ptr %18, align 4
  %108 = load i32, ptr %24, align 4
  %109 = add nsw i32 %107, %108
  store i32 %109, ptr %35, align 4
  %110 = load ptr, ptr %10, align 8
  %111 = getelementptr inbounds %"class.cv::Mat", ptr %110, i32 0, i32 2
  %112 = load i32, ptr %111, align 8
  %113 = sub nsw i32 %112, 1
  store i32 %113, ptr %36, align 4
  %114 = call noundef nonnull align 4 dereferenceable(4) ptr @_ZSt3minIiERKT_S2_S2_(ptr noundef nonnull align 4 dereferenceable(4) %35, ptr noundef nonnull align 4 dereferenceable(4) %36)
  %115 = load i32, ptr %114, align 4
  store i32 %115, ptr %34, align 4
  %116 = getelementptr inbounds %"class.cv::wechat_qrcode::Align", ptr %43, i32 0, i32 2
  %117 = load i32, ptr %116, align 8
  %118 = getelementptr inbounds %"class.cv::wechat_qrcode::Align", ptr %43, i32 0, i32 3
  %119 = load i32, ptr %118, align 4
  %120 = load i32, ptr %31, align 4
  %121 = getelementptr inbounds %"class.cv::wechat_qrcode::Align", ptr %43, i32 0, i32 2
  %122 = load i32, ptr %121, align 8
  %123 = sub nsw i32 %120, %122
  %124 = add nsw i32 %123, 1
  %125 = load i32, ptr %34, align 4
  %126 = getelementptr inbounds %"class.cv::wechat_qrcode::Align", ptr %43, i32 0, i32 3
  %127 = load i32, ptr %126, align 4
  %128 = sub nsw i32 %125, %127
  %129 = add nsw i32 %128, 1
  call void @_ZN2cv5Rect_IiEC2Eiiii(ptr noundef nonnull align 4 dereferenceable(16) %37, i32 noundef %117, i32 noundef %119, i32 noundef %124, i32 noundef %129)
  store i1 false, ptr %38, align 1
  %130 = load ptr, ptr %10, align 8
  call void @_ZNK2cv3MatclERKNS_5Rect_IiEE(ptr dead_on_unwind writable sret(%"class.cv::Mat") align 8 %39, ptr noundef nonnull align 8 dereferenceable(96) %130, ptr noundef nonnull align 4 dereferenceable(16) %37)
  invoke void @_ZNK2cv3Mat5cloneEv(ptr dead_on_unwind writable sret(%"class.cv::Mat") align 8 %0, ptr noundef nonnull align 8 dereferenceable(96) %39)
          to label %131 unwind label %139

131:                                              ; preds = %7
  call void @_ZN2cv3MatD1Ev(ptr noundef nonnull align 8 dereferenceable(96) %39) #9
  %132 = getelementptr inbounds %"class.cv::wechat_qrcode::Align", ptr %43, i32 0, i32 4
  %133 = load i8, ptr %132, align 8
  %134 = trunc i8 %133 to i1
  br i1 %134, label %135, label %151

135:                                              ; preds = %131
  invoke void @_ZNK2cv3Mat1tEv(ptr dead_on_unwind writable sret(%"class.cv::MatExpr") align 8 %42, ptr noundef nonnull align 8 dereferenceable(96) %0)
          to label %136 unwind label %143

136:                                              ; preds = %135
  %137 = invoke noundef nonnull align 8 dereferenceable(96) ptr @_ZN2cv3MataSERKNS_7MatExprE(ptr noundef nonnull align 8 dereferenceable(96) %0, ptr noundef nonnull align 8 dereferenceable(352) %42)
          to label %138 unwind label %147

138:                                              ; preds = %136
  call void @_ZN2cv7MatExprD2Ev(ptr noundef nonnull align 8 dereferenceable(352) %42) #9
  br label %151

139:                                              ; preds = %7
  %140 = landingpad { ptr, i32 }
          cleanup
  %141 = extractvalue { ptr, i32 } %140, 0
  store ptr %141, ptr %40, align 8
  %142 = extractvalue { ptr, i32 } %140, 1
  store i32 %142, ptr %41, align 4
  call void @_ZN2cv3MatD1Ev(ptr noundef nonnull align 8 dereferenceable(96) %39) #9
  br label %156

143:                                              ; preds = %135
  %144 = landingpad { ptr, i32 }
          cleanup
  %145 = extractvalue { ptr, i32 } %144, 0
  store ptr %145, ptr %40, align 8
  %146 = extractvalue { ptr, i32 } %144, 1
  store i32 %146, ptr %41, align 4
  br label %155

147:                                              ; preds = %136
  %148 = landingpad { ptr, i32 }
          cleanup
  %149 = extractvalue { ptr, i32 } %148, 0
  store ptr %149, ptr %40, align 8
  %150 = extractvalue { ptr, i32 } %148, 1
  store i32 %150, ptr %41, align 4
  call void @_ZN2cv7MatExprD2Ev(ptr noundef nonnull align 8 dereferenceable(352) %42) #9
  br label %155

151:                                              ; preds = %138, %131
  store i1 true, ptr %38, align 1
  %152 = load i1, ptr %38, align 1
  br i1 %152, label %154, label %153

153:                                              ; preds = %151
  call void @_ZN2cv3MatD1Ev(ptr noundef nonnull align 8 dereferenceable(96) %0) #9
  br label %154

154:                                              ; preds = %153, %151
  ret void

155:                                              ; preds = %147, %143
  call void @_ZN2cv3MatD1Ev(ptr noundef nonnull align 8 dereferenceable(96) %0) #9
  br label %156

156:                                              ; preds = %155, %139
  %157 = load ptr, ptr %40, align 8
  %158 = load i32, ptr %41, align 4
  %159 = insertvalue { ptr, i32 } poison, ptr %157, 0
  %160 = insertvalue { ptr, i32 } %159, i32 %158, 1
  resume { ptr, i32 } %160
}