; Function Attrs: mustprogress uwtable
define hidden void @_ZN2cv13wechat_qrcode5Align4cropERKNS_3MatES4_ffi(ptr dead_on_unwind noalias writable sret(%"class.cv::Mat") align 8 %0, ptr nocapture noundef nonnull align 8 dereferenceable(201) %1, ptr noundef nonnull align 8 dereferenceable(96) %2, ptr nocapture noundef nonnull readonly align 8 dereferenceable(96) %3, float noundef %4, float noundef %5, i32 noundef %6) local_unnamed_addr #2 align 2 personality ptr @__gxx_personality_v0 {
  %8 = alloca %"class.cv::Rect_", align 8
  %9 = alloca %"class.cv::Mat", align 8
  %10 = alloca %"class.cv::MatExpr", align 8
  %11 = getelementptr inbounds i8, ptr %3, i64 16
  %12 = load ptr, ptr %11, align 8
  %13 = getelementptr inbounds i8, ptr %3, i64 72
  %14 = load ptr, ptr %13, align 8
  %15 = load i64, ptr %14, align 8
  %16 = shl i64 %15, 1
  %17 = getelementptr inbounds i8, ptr %12, i64 %16
  %18 = sitofp i32 %6 to float
  %19 = getelementptr inbounds i8, ptr %1, i64 192
  %20 = load <2 x float>, ptr %12, align 4
  %21 = fptosi <2 x float> %20 to <2 x i32>
  %22 = load <2 x float>, ptr %17, align 4
  %23 = fptosi <2 x float> %22 to <2 x i32>
  %24 = sub <2 x i32> %23, %21
  %25 = add <2 x i32> %24, <i32 1, i32 1>
  %26 = sitofp <2 x i32> %25 to <2 x float>
  %27 = insertelement <2 x float> poison, float %4, i64 0
  %28 = insertelement <2 x float> %27, float %5, i64 1
  %29 = fmul <2 x float> %28, %26
  %30 = insertelement <2 x float> poison, float %18, i64 0
  %31 = shufflevector <2 x float> %30, <2 x float> poison, <2 x i32> zeroinitializer
  %32 = fcmp olt <2 x float> %29, %31
  %33 = select <2 x i1> %32, <2 x float> %31, <2 x float> %29
  %34 = fptosi <2 x float> %33 to <2 x i32>
  %35 = sub nsw <2 x i32> %21, %34
  %36 = tail call <2 x i32> @llvm.smax.v2i32(<2 x i32> %35, <2 x i32> zeroinitializer)
  store <2 x i32> %36, ptr %19, align 8
  %37 = getelementptr inbounds i8, ptr %2, i64 8
  store <2 x i32> %36, ptr %8, align 8
  %38 = getelementptr inbounds i8, ptr %8, i64 8
  %39 = add nsw <2 x i32> %34, %23
  %40 = load <2 x i32>, ptr %37, align 8
  %41 = add nsw <2 x i32> %40, <i32 -1, i32 -1>
  %42 = shufflevector <2 x i32> %41, <2 x i32> poison, <2 x i32> <i32 1, i32 0>
  %43 = tail call <2 x i32> @llvm.smin.v2i32(<2 x i32> %42, <2 x i32> %39)
  %44 = sub <2 x i32> %43, %36
  %45 = add <2 x i32> %44, <i32 1, i32 1>
  store <2 x i32> %45, ptr %38, align 8
  call void @_ZN2cv3MatC1ERKS0_RKNS_5Rect_IiEE(ptr noundef nonnull align 8 dereferenceable(96) %9, ptr noundef nonnull align 8 dereferenceable(96) %2, ptr noundef nonnull align 4 dereferenceable(16) %8)
  invoke void @_ZNK2cv3Mat5cloneEv(ptr dead_on_unwind writable sret(%"class.cv::Mat") align 8 %0, ptr noundef nonnull align 8 dereferenceable(96) %9)
          to label %46 unwind label %59

46:                                               ; preds = %7
  call void @_ZN2cv3MatD1Ev(ptr noundef nonnull align 8 dereferenceable(96) %9) #10
  %47 = getelementptr inbounds i8, ptr %1, i64 200
  %48 = load i8, ptr %47, align 8
  %49 = trunc i8 %48 to i1
  br i1 %49, label %50, label %65

50:                                               ; preds = %46
  invoke void @_ZNK2cv3Mat1tEv(ptr dead_on_unwind nonnull writable sret(%"class.cv::MatExpr") align 8 %10, ptr noundef nonnull align 8 dereferenceable(96) %0)
          to label %51 unwind label %61

51:                                               ; preds = %50
  %52 = load ptr, ptr %10, align 8
  %53 = load ptr, ptr %52, align 8
  %54 = getelementptr inbounds i8, ptr %53, i64 24
  %55 = load ptr, ptr %54, align 8
  invoke void %55(ptr noundef nonnull align 8 dereferenceable(8) %52, ptr noundef nonnull align 8 dereferenceable(352) %10, ptr noundef nonnull align 8 dereferenceable(96) %0, i32 noundef -1)
          to label %_ZN2cv3MataSERKNS_7MatExprE.exit unwind label %63

_ZN2cv3MataSERKNS_7MatExprE.exit:                 ; preds = %51
  %56 = getelementptr inbounds i8, ptr %10, i64 208
  call void @_ZN2cv3MatD1Ev(ptr noundef nonnull align 8 dereferenceable(96) %56) #10
  %57 = getelementptr inbounds i8, ptr %10, i64 112
  call void @_ZN2cv3MatD1Ev(ptr noundef nonnull align 8 dereferenceable(96) %57) #10
  %58 = getelementptr inbounds i8, ptr %10, i64 16
  call void @_ZN2cv3MatD1Ev(ptr noundef nonnull align 8 dereferenceable(96) %58) #10
  br label %65

59:                                               ; preds = %7
  %60 = landingpad { ptr, i32 }
          cleanup
  br label %66

61:                                               ; preds = %50
  %62 = landingpad { ptr, i32 }
          cleanup
  br label %66

63:                                               ; preds = %51
  %64 = landingpad { ptr, i32 }
          cleanup
  call void @_ZN2cv7MatExprD2Ev(ptr noundef nonnull align 8 dereferenceable(352) %10) #10
  br label %66

65:                                               ; preds = %46, %_ZN2cv3MataSERKNS_7MatExprE.exit
  ret void

66:                                               ; preds = %61, %63, %59
  %.sink = phi ptr [ %9, %59 ], [ %0, %63 ], [ %0, %61 ]
  %.pn.pn = phi { ptr, i32 } [ %60, %59 ], [ %64, %63 ], [ %62, %61 ]
  call void @_ZN2cv3MatD1Ev(ptr noundef nonnull align 8 dereferenceable(96) %.sink) #10
  resume { ptr, i32 } %.pn.pn
}